target datalayout = "e-m:e-p270:32:32-p271:32:32-p272:64:64-i64:64-i128:128-f80:128-n8:16:32:64-S128"
target triple = "x86_64-unknown-linux-gnu"

%struct.QTailQLink = type { ptr, ptr }
%struct.BlockDriverState = type { i32, i8, i8, i8, i8, i8, ptr, ptr, ptr, %struct.anon.0, i8, [4096 x i8], [4096 x i8], [4096 x i8], [16 x i8], ptr, [4096 x i8], %struct.BlockLimits, i32, i32, i32, i32, [32 x i8], %union.anon, %union.anon.1, %union.anon.2, i32, [16 x %struct.anon.3], ptr, %struct.anon.4, ptr, ptr, %struct.anon.5, ptr, ptr, i32, ptr, i64, i64, %struct.QemuMutex, %struct.anon.6, %struct.Stat64, i32, i32, i32, i32, i32, i32, %struct.QemuMutex, %struct.anon.7, %struct.CoQueue, i8, i32, i8, %struct.CoMutex, ptr, ptr }
%struct.anon.0 = type { ptr }
%struct.BlockLimits = type { i32, i64, i32, i64, i32, i32, i32, i64, i32, i64, i64, i32, i8, i32, i32, i32, i32, i32, i32, i32 }
%union.anon = type { %struct.QTailQLink }
%union.anon.1 = type { %struct.QTailQLink }
%union.anon.2 = type { %struct.QTailQLink }
%struct.anon.3 = type { ptr }
%struct.anon.4 = type { ptr }
%struct.anon.5 = type { ptr }
%struct.anon.6 = type { ptr }
%struct.Stat64 = type { i64 }
%struct.QemuMutex = type { %union.pthread_mutex_t, i8 }
%union.pthread_mutex_t = type { %struct.__pthread_mutex_s }
%struct.__pthread_mutex_s = type { i32, i32, i32, i32, i32, i16, i16, %struct.__pthread_internal_list }
%struct.__pthread_internal_list = type { ptr, ptr }
%struct.anon.7 = type { ptr }
%struct.CoQueue = type { %struct.anon.8 }
%struct.anon.8 = type { ptr, ptr }
%struct.CoMutex = type { i32, ptr, %struct.anon.9, %struct.anon.9, i32, i32, ptr }
%struct.anon.9 = type { ptr }
%struct.BDRVReplicationState = type { i32, i32, ptr, ptr, ptr, ptr, ptr, ptr, ptr, i8, i8, i32 }
%struct.BlockJob = type { %struct.Job, i32, i64, %struct.RateLimit, ptr, %struct.Notifier, %struct.Notifier, %struct.Notifier, %struct.Notifier, %struct.Notifier, ptr }
%struct.Job = type { ptr, ptr, ptr, i8, i8, ptr, ptr, %struct.ProgressMeter, ptr, i32, i32, %struct.QEMUTimer, i32, i8, i8, i8, i8, i8, i8, i32, ptr, %struct.NotifierList, %struct.NotifierList, %struct.NotifierList, %struct.NotifierList, %struct.NotifierList, %struct.anon.15, ptr, %struct.anon.16 }
%struct.ProgressMeter = type { i64, i64, %struct.QemuMutex }
%struct.QEMUTimer = type { i64, ptr, ptr, ptr, ptr, i32, i32 }
%struct.NotifierList = type { %struct.anon.14 }
%struct.anon.14 = type { ptr }
%struct.anon.15 = type { ptr, ptr }
%struct.anon.16 = type { ptr, ptr }
%struct.RateLimit = type { %struct.QemuMutex, i64, i64, i64, i64, i64 }
%struct.Notifier = type { ptr, %struct.anon.17 }
%struct.anon.17 = type { ptr, ptr }

@.str.4 = private unnamed_addr constant [28 x i8] c"../qemu/block/replication.c\00", align 1
@.str.12 = private unnamed_addr constant [22 x i8] c"qemu_in_main_thread()\00", align 1
@__PRETTY_FUNCTION__.replication_close = private unnamed_addr constant [43 x i8] c"void replication_close(BlockDriverState *)\00", align 1
@.str.31 = private unnamed_addr constant [58 x i8] c"commit_job->aio_context == qemu_get_current_aio_context()\00", align 1

; Function Attrs: nounwind sspstrong uwtable
define internal void @replication_close(ptr noundef %bs) #0 {
entry:
  %bs.addr = alloca ptr, align 8
  %s = alloca ptr, align 8
  %commit_job = alloca ptr, align 8
  store ptr %bs, ptr %bs.addr, align 8
  %0 = load ptr, ptr %bs.addr, align 8
  %opaque = getelementptr inbounds %struct.BlockDriverState, ptr %0, i32 0, i32 7
  %1 = load ptr, ptr %opaque, align 8
  store ptr %1, ptr %s, align 8
  br label %do.body

do.body:                                          ; preds = %entry
  %call = call zeroext i1 @qemu_in_main_thread()
  br i1 %call, label %if.then, label %if.else

if.then:                                          ; preds = %do.body
  br label %if.end

if.else:                                          ; preds = %do.body
  call void @__assert_fail(ptr noundef @.str.12, ptr noundef @.str.4, i32 noundef 143, ptr noundef @__PRETTY_FUNCTION__.replication_close) #6
  unreachable

if.end:                                           ; preds = %if.then
  br label %do.end

do.end:                                           ; preds = %if.end
  %2 = load ptr, ptr %s, align 8
  %stage = getelementptr inbounds %struct.BDRVReplicationState, ptr %2, i32 0, i32 1
  %3 = load i32, ptr %stage, align 4
  %cmp = icmp eq i32 %3, 1
  br i1 %cmp, label %if.then1, label %if.end2

if.then1:                                         ; preds = %do.end
  %4 = load ptr, ptr %s, align 8
  %rs = getelementptr inbounds %struct.BDRVReplicationState, ptr %4, i32 0, i32 7
  %5 = load ptr, ptr %rs, align 8
  call void @replication_stop(ptr noundef %5, i1 noundef zeroext false, ptr noundef null)
  br label %if.end2

if.end2:                                          ; preds = %if.then1, %do.end
  %6 = load ptr, ptr %s, align 8
  %stage3 = getelementptr inbounds %struct.BDRVReplicationState, ptr %6, i32 0, i32 1
  %7 = load i32, ptr %stage3, align 4
  %cmp4 = icmp eq i32 %7, 2
  br i1 %cmp4, label %if.then5, label %if.end13

if.then5:                                         ; preds = %if.end2
  %8 = load ptr, ptr %s, align 8
  %commit_job6 = getelementptr inbounds %struct.BDRVReplicationState, ptr %8, i32 0, i32 2
  %9 = load ptr, ptr %commit_job6, align 8
  %job = getelementptr inbounds %struct.BlockJob, ptr %9, i32 0, i32 0
  store ptr %job, ptr %commit_job, align 8
  %10 = load ptr, ptr %commit_job, align 8
  %aio_context = getelementptr inbounds %struct.Job, ptr %10, i32 0, i32 8
  %11 = load ptr, ptr %aio_context, align 8
  %call7 = call ptr @qemu_get_current_aio_context()
  %cmp8 = icmp eq ptr %11, %call7
  br i1 %cmp8, label %if.then9, label %if.else10

if.then9:                                         ; preds = %if.then5
  br label %if.end11

if.else10:                                        ; preds = %if.then5
  call void @__assert_fail(ptr noundef @.str.31, ptr noundef @.str.4, i32 noundef 150, ptr noundef @__PRETTY_FUNCTION__.replication_close) #6
  unreachable

if.end11:                                         ; preds = %if.then9
  %12 = load ptr, ptr %commit_job, align 8
  %call12 = call i32 @job_cancel_sync(ptr noundef %12, i1 noundef zeroext false)
  br label %if.end13

if.end13:                                         ; preds = %if.end11, %if.end2
  %13 = load ptr, ptr %s, align 8
  %mode = getelementptr inbounds %struct.BDRVReplicationState, ptr %13, i32 0, i32 0
  %14 = load i32, ptr %mode, align 8
  %cmp14 = icmp eq i32 %14, 1
  br i1 %cmp14, label %if.then15, label %if.end16

if.then15:                                        ; preds = %if.end13
  %15 = load ptr, ptr %s, align 8
  %top_id = getelementptr inbounds %struct.BDRVReplicationState, ptr %15, i32 0, i32 6
  %16 = load ptr, ptr %top_id, align 8
  call void @g_free(ptr noundef %16)
  br label %if.end16

if.end16:                                         ; preds = %if.then15, %if.end13
  %17 = load ptr, ptr %s, align 8
  %rs17 = getelementptr inbounds %struct.BDRVReplicationState, ptr %17, i32 0, i32 7
  %18 = load ptr, ptr %rs17, align 8
  call void @replication_remove(ptr noundef %18)
  ret void
}