; Function Attrs: nounwind sspstrong uwtable
define internal void @replication_close(ptr noundef readonly captures(none) %bs) #0 {
entry:
  %opaque = getelementptr inbounds nuw i8, ptr %bs, i64 24
  %0 = load ptr, ptr %opaque, align 8
  %call = tail call zeroext i1 @qemu_in_main_thread() #8
  br i1 %call, label %do.end, label %if.else

if.else:                                          ; preds = %entry
  tail call void @__assert_fail(ptr noundef nonnull @.str.12, ptr noundef nonnull @.str.4, i32 noundef 143, ptr noundef nonnull @__PRETTY_FUNCTION__.replication_close) #10
  unreachable

do.end:                                           ; preds = %entry
  %stage = getelementptr inbounds nuw i8, ptr %0, i64 4
  %1 = load i32, ptr %stage, align 4
  %cmp = icmp eq i32 %1, 1
  br i1 %cmp, label %if.then1, label %if.end2

if.then1:                                         ; preds = %do.end
  %rs = getelementptr inbounds nuw i8, ptr %0, i64 48
  %2 = load ptr, ptr %rs, align 8
  tail call void @replication_stop(ptr noundef %2, i1 noundef zeroext false, ptr noundef null)
  %.pr = load i32, ptr %stage, align 4
  br label %if.end2

if.end2:                                          ; preds = %if.then1, %do.end
  %3 = phi i32 [ %.pr, %if.then1 ], [ %1, %do.end ]
  %cmp4 = icmp eq i32 %3, 2
  br i1 %cmp4, label %if.then5, label %if.end13

if.then5:                                         ; preds = %if.end2
  %commit_job6 = getelementptr inbounds nuw i8, ptr %0, i64 8
  %4 = load ptr, ptr %commit_job6, align 8
  %aio_context = getelementptr inbounds nuw i8, ptr %4, i64 112
  %5 = load ptr, ptr %aio_context, align 8
  %call7 = tail call ptr @qemu_get_current_aio_context() #8
  %cmp8 = icmp eq ptr %5, %call7
  br i1 %cmp8, label %if.end11, label %if.else10

if.else10:                                        ; preds = %if.then5
  tail call void @__assert_fail(ptr noundef nonnull @.str.31, ptr noundef nonnull @.str.4, i32 noundef 150, ptr noundef nonnull @__PRETTY_FUNCTION__.replication_close) #10
  unreachable

if.end11:                                         ; preds = %if.then5
  %call12 = tail call i32 @job_cancel_sync(ptr noundef nonnull %4, i1 noundef zeroext false) #8
  br label %if.end13

if.end13:                                         ; preds = %if.end11, %if.end2
  %6 = load i32, ptr %0, align 8
  %cmp14 = icmp eq i32 %6, 1
  br i1 %cmp14, label %if.then15, label %if.end16

if.then15:                                        ; preds = %if.end13
  %top_id = getelementptr inbounds nuw i8, ptr %0, i64 40
  %7 = load ptr, ptr %top_id, align 8
  tail call void @g_free(ptr noundef %7) #8
  br label %if.end16

if.end16:                                         ; preds = %if.then15, %if.end13
  %rs17 = getelementptr inbounds nuw i8, ptr %0, i64 48
  %8 = load ptr, ptr %rs17, align 8
  tail call void @replication_remove(ptr noundef %8) #8
  ret void
}